Certificate:
    Data:
        Version: 3 (0x2)
        Serial Number: 4096 (0x1000)
        Signature Algorithm: sha256WithRSAEncryption
        Issuer: C=BN, ST=Sylhet, L=Sylhet, O=SUST, OU=SUST, CN=SUST/emailAddress=jisanahmed10667@gmail.com
        Validity
            Not Before: Jun 28 04:56:02 2024 GMT
            Not After : Jun 28 04:56:02 2025 GMT
        Subject: C=BN, ST=Sylhet, O=SUST, OU=SUST, CN=SUST/emailAddress=jisanahmed106612@gmail.com
        Subject Public Key Info:
            Public Key Algorithm: rsaEncryption
                Public-Key: (2048 bit)
                Modulus:
                    00:c1:f5:e1:e9:fb:00:d1:df:c4:b4:3a:95:d0:c7:
                    00:06:2e:7a:cf:74:37:fb:ad:3b:06:0e:ff:ef:9a:
                    46:6d:e6:04:1c:b2:4a:0c:44:51:f2:c0:9a:6f:99:
                    fa:ef:25:e0:48:46:f6:7a:5b:ce:91:68:60:1a:45:
                    f7:37:dc:fd:a2:cc:f0:85:2c:7a:91:67:a1:aa:1b:
                    91:ab:51:40:bb:b9:fd:19:eb:3a:ba:c2:79:b3:50:
                    44:d9:1b:43:4f:21:d7:f9:6d:cd:40:97:ec:60:8f:
                    a6:f2:d4:32:a4:f3:3e:88:05:92:b6:cf:75:05:1a:
                    83:6a:09:b6:a7:c0:79:25:b1:42:60:93:23:70:89:
                    bf:10:4e:ea:b4:53:ca:91:29:b9:0b:bf:ac:15:e3:
                    e4:c9:08:04:1b:ba:9c:f6:52:00:66:c7:3d:5d:cc:
                    c2:52:03:8a:df:e5:ef:8c:80:83:38:2f:de:ef:41:
                    ce:19:b2:c0:61:bd:ad:d5:67:3b:52:60:55:e3:30:
                    0d:a1:a7:68:88:5a:ff:ea:aa:84:f4:fa:67:e3:80:
                    7f:56:2f:df:f8:13:43:52:a4:0f:01:d8:c2:7f:42:
                    15:5a:07:3d:f4:c8:dd:96:26:e1:c4:8f:f9:d5:36:
                    b2:1c:05:bd:36:3b:92:d1:7b:4b:76:cd:b5:fd:28:
                    b3:c1
                Exponent: 65537 (0x10001)
        X509v3 extensions:
            X509v3 Basic Constraints: 
                CA:FALSE
            X509v3 Subject Key Identifier: 
                DD:CA:02:C7:66:F7:77:E8:F7:D1:91:72:5C:BF:05:B4:86:A6:5E:4C
            X509v3 Authority Key Identifier: 
                B4:73:94:16:51:98:EB:C9:2B:1C:85:EA:49:60:43:D6:4B:18:51:CD
    Signature Algorithm: sha256WithRSAEncryption
    Signature Value:
        46:86:43:d7:2a:9a:4b:e6:f2:0c:ea:4c:33:cd:3b:89:1a:30:
        bc:85:b5:36:0f:96:5b:46:28:a9:98:3d:3a:ef:73:4d:ac:63:
        1c:91:a6:7e:b8:5a:fd:b7:19:15:6d:17:b7:c9:35:83:a7:b0:
        35:d3:08:4e:c2:1a:35:86:91:c5:48:07:de:1d:32:83:ba:bc:
        3b:17:da:27:40:ae:e5:16:7d:92:14:2e:02:70:b9:a1:a7:07:
        65:5b:5e:d8:4a:67:50:31:2a:c9:1d:6c:c0:32:9e:4f:a4:9e:
        87:cc:0f:9a:6e:9f:94:62:cb:a4:6b:ef:0a:d1:be:5c:2d:a1:
        d8:bb:87:ee:f2:4f:c1:19:37:64:a6:05:2d:69:ce:72:88:45:
        04:7c:d9:61:b8:da:39:9b:eb:38:99:48:d3:00:14:9d:68:f9:
        b7:ed:b5:e2:9e:09:58:e5:75:2b:07:df:ca:83:6c:36:24:4b:
        d8:79:73:57:91:1c:63:0e:09:d8:7d:1c:ec:3d:67:63:f8:d7:
        79:5a:4e:50:36:46:e2:2b:c9:c5:4a:f5:78:ca:7e:84:2a:33:
        e6:7c:e9:3a:06:86:79:26:ec:fd:ea:6f:ca:26:17:ef:a0:7a:
        d0:4e:84:41:87:d9:6e:47:68:f7:f8:47:62:6d:3b:eb:9d:60:
        90:89:dd:e7
-----BEGIN CERTIFICATE-----
MIIDxjCCAq6gAwIBAgICEAAwDQYJKoZIhvcNAQELBQAwgYYxCzAJBgNVBAYTAkJO
MQ8wDQYDVQQIDAZTeWxoZXQxDzANBgNVBAcMBlN5bGhldDENMAsGA1UECgwEU1VT
VDENMAsGA1UECwwEU1VTVDENMAsGA1UEAwwEU1VTVDEoMCYGCSqGSIb3DQEJARYZ
amlzYW5haG1lZDEwNjY3QGdtYWlsLmNvbTAeFw0yNDA2MjgwNDU2MDJaFw0yNTA2
MjgwNDU2MDJaMHYxCzAJBgNVBAYTAkJOMQ8wDQYDVQQIDAZTeWxoZXQxDTALBgNV
BAoMBFNVU1QxDTALBgNVBAsMBFNVU1QxDTALBgNVBAMMBFNVU1QxKTAnBgkqhkiG
9w0BCQEWGmppc2FuYWhtZWQxMDY2MTJAZ21haWwuY29tMIIBIjANBgkqhkiG9w0B
AQEFAAOCAQ8AMIIBCgKCAQEAwfXh6fsA0d/EtDqV0McABi56z3Q3+607Bg7/75pG
beYEHLJKDERR8sCab5n67yXgSEb2elvOkWhgGkX3N9z9oszwhSx6kWehqhuRq1FA
u7n9Ges6usJ5s1BE2RtDTyHX+W3NQJfsYI+m8tQypPM+iAWSts91BRqDagm2p8B5
JbFCYJMjcIm/EE7qtFPKkSm5C7+sFePkyQgEG7qc9lIAZsc9XczCUgOK3+XvjICD
OC/e70HOGbLAYb2t1Wc7UmBV4zANoadoiFr/6qqE9Ppn44B/Vi/f+BNDUqQPAdjC
f0IVWgc99MjdlibhxI/51TayHAW9NjuS0XtLds21/SizwQIDAQABo00wSzAJBgNV
HRMEAjAAMB0GA1UdDgQWBBTdygLHZvd36PfRkXJcvwW0hqZeTDAfBgNVHSMEGDAW
gBS0c5QWUZjrySschepJYEPWSxhRzTANBgkqhkiG9w0BAQsFAAOCAQEARoZD1yqa
S+byDOpMM807iRowvIW1Ng+WW0YoqZg9Ou9zTaxjHJGmfrha/bcZFW0Xt8k1g6ew
NdMITsIaNYaRxUgH3h0yg7q8OxfaJ0Cu5RZ9khQuAnC5oacHZVte2EpnUDEqyR1s
wDKeT6Seh8wPmm6flGLLpGvvCtG+XC2h2LuH7vJPwRk3ZKYFLWnOcohFBHzZYbja
OZvrOJlI0wAUnWj5t+214p4JWOV1KwffyoNsNiRL2HlzV5EcYw4J2H0c7D1nY/jX
eVpOUDZG4ivJxUr1eMp+hCoz5nzpOgaGeSbs/epvyiYX76B60E6EQYfZbkdo9/hH
Ym07651gkInd5w==
-----END CERTIFICATE-----
